	.cpu cortex-m4
	.arch armv7e-m
	.fpu softvfp
	.eabi_attribute 20, 1
	.eabi_attribute 21, 1
	.eabi_attribute 23, 3
	.eabi_attribute 24, 1
	.eabi_attribute 25, 1
	.eabi_attribute 26, 1
	.eabi_attribute 30, 6
	.eabi_attribute 34, 1
	.eabi_attribute 18, 4
	.file	"startup.c"
	.text
.Ltext0:
	.cfi_sections	.debug_frame
	.file 1 "startup.c"
	.global	interrupt_vector_table
	.section	.IVT,"a"
	.align	2
	.type	interrupt_vector_table, %object
	.size	interrupt_vector_table, 392
interrupt_vector_table:
	.word	537001984
	.word	Reset_Handler
	.word	NMI_Handler
	.word	HardFault_Handler
	.word	MemManage_Handler
	.word	BusFault_Handler
	.word	UsageFault_Handler
	.word	0
	.word	0
	.word	0
	.word	0
	.word	SVCall_Handler
	.word	DebugMonitor_Handler
	.word	0
	.word	PendSV_Handler
	.word	SysTick_Handler
	.word	WWDG_IRQHandler
	.word	PVD_IRQHandler
	.word	TAMP_STAMP_IRQHandler
	.word	RTC_WKUP_IRQHandler
	.word	FLASH_IRQHandler
	.word	RCC_IRQHandler
	.word	EXTI0_IRQHandler
	.word	EXTI1_IRQHandler
	.word	EXTI2_IRQHandler
	.word	EXTI3_IRQHandler
	.word	EXTI4_IRQHandler
	.word	DMA1_Stream0_IRQHandler
	.word	DMA1_Stream1_IRQHandler
	.word	DMA1_Stream2_IRQHandler
	.word	DMA1_Stream3_IRQHandler
	.word	DMA1_Stream4_IRQHandler
	.word	DMA1_Stream5_IRQHandler
	.word	DMA1_Stream6_IRQHandler
	.word	ADC_IRQHandler
	.word	CAN1_TX_IRQHandler
	.word	CAN1_RX0_IRQHandler
	.word	CAN1_RX1_IRQHandler
	.word	CAN1_SCE_IRQHandler
	.word	EXTI9_5_IRQHandler
	.word	TIM1_BRK_TIM9_IRQHandler
	.word	TIM1_UP_TIM10_IRQHandler
	.word	TIM1_TRG_COM_TIM11_IRQHandler
	.word	TIM1_CC_IRQHandler
	.word	TIM2_IRQHandler
	.word	TIM3_IRQHandler
	.word	TIM4_IRQHandler
	.word	I2C1_EV_IRQHandler
	.word	I2C1_ER_IRQHandler
	.word	I2C2_EV_IRQHandler
	.word	I2C2_ER_IRQHandler
	.word	SPI1_IRQHandler
	.word	SPI2_IRQHandler
	.word	USART1_IRQHandler
	.word	USART2_IRQHandler
	.word	USART3_IRQHandler
	.word	EXTI15_10_IRQHandler
	.word	RTC_Alarm_IRQHandler
	.word	OTG_FS_WKUP_IRQHandler
	.word	TIM8_BRK_TIM12_IRQHandler
	.word	TIM8_UP_TIM13_IRQHandler
	.word	TIM8_TRG_COM_TIM14_IRQHandler
	.word	TIM8_CC_IRQHandler
	.word	DMA1_Stream7_IRQHandler
	.word	FSMC_IRQHandler
	.word	SDIO_IRQHandler
	.word	TIM5_IRQHandler
	.word	SPI3_IRQHandler
	.word	UART4_IRQHandler
	.word	UART5_IRQHandler
	.word	TIM6_DAC_IRQHandler
	.word	TIM7_IRQHandler
	.word	DMA2_Stream0_IRQHandler
	.word	DMA2_Stream1_IRQHandler
	.word	DMA2_Stream2_IRQHandler
	.word	DMA2_Stream3_IRQHandler
	.word	DMA2_Stream4_IRQHandler
	.word	ETH_IRQHandler
	.word	ETH_WKUP_IRQHandler
	.word	CAN2_TX_IRQHandler
	.word	CAN2_RX0_IRQHandler
	.word	CAN2_RX1_IRQHandler
	.word	CAN2_SCE_IRQHandler
	.word	OTG_FS_IRQHandler
	.word	DMA2_Stream5_IRQHandler
	.word	DMA2_Stream6_IRQHandler
	.word	DMA2_Stream7_IRQHandler
	.word	USART6_IRQHandler
	.word	I2C3_EV_IRQHandler
	.word	I2C3_ER_IRQHandler
	.word	OTG_HS_EP1_OUT_IRQHandler
	.word	OTG_HS_EP1_IN_IRQHandler
	.word	OTG_HS_WKUP_IRQHandler
	.word	OTG_HS_IRQHandler
	.word	DCMI_IRQHandler
	.word	CRYP_IRQHandler
	.word	HASH_RNG_IRQHandler
	.word	FPU_IRQHandler
	.text
	.align	1
	.global	Default_Handler
	.syntax unified
	.thumb
	.thumb_func
	.type	Default_Handler, %function
Default_Handler:
.LFB0:
	.loc 1 222 1
	.cfi_startproc
	@ args = 0, pretend = 0, frame = 0
	@ frame_needed = 1, uses_anonymous_args = 0
	@ link register save eliminated.
	push	{r7}
	.cfi_def_cfa_offset 4
	.cfi_offset 7, -4
	add	r7, sp, #0
	.cfi_def_cfa_register 7
.L2:
	.loc 1 223 10
	nop
	b	.L2
	.cfi_endproc
.LFE0:
	.size	Default_Handler, .-Default_Handler
	.weak	FPU_IRQHandler
	.thumb_set FPU_IRQHandler,Default_Handler
	.weak	HASH_RNG_IRQHandler
	.thumb_set HASH_RNG_IRQHandler,Default_Handler
	.weak	CRYP_IRQHandler
	.thumb_set CRYP_IRQHandler,Default_Handler
	.weak	DCMI_IRQHandler
	.thumb_set DCMI_IRQHandler,Default_Handler
	.weak	OTG_HS_IRQHandler
	.thumb_set OTG_HS_IRQHandler,Default_Handler
	.weak	OTG_HS_WKUP_IRQHandler
	.thumb_set OTG_HS_WKUP_IRQHandler,Default_Handler
	.weak	OTG_HS_EP1_IN_IRQHandler
	.thumb_set OTG_HS_EP1_IN_IRQHandler,Default_Handler
	.weak	OTG_HS_EP1_OUT_IRQHandler
	.thumb_set OTG_HS_EP1_OUT_IRQHandler,Default_Handler
	.weak	I2C3_ER_IRQHandler
	.thumb_set I2C3_ER_IRQHandler,Default_Handler
	.weak	I2C3_EV_IRQHandler
	.thumb_set I2C3_EV_IRQHandler,Default_Handler
	.weak	USART6_IRQHandler
	.thumb_set USART6_IRQHandler,Default_Handler
	.weak	DMA2_Stream7_IRQHandler
	.thumb_set DMA2_Stream7_IRQHandler,Default_Handler
	.weak	DMA2_Stream6_IRQHandler
	.thumb_set DMA2_Stream6_IRQHandler,Default_Handler
	.weak	DMA2_Stream5_IRQHandler
	.thumb_set DMA2_Stream5_IRQHandler,Default_Handler
	.weak	OTG_FS_IRQHandler
	.thumb_set OTG_FS_IRQHandler,Default_Handler
	.weak	CAN2_SCE_IRQHandler
	.thumb_set CAN2_SCE_IRQHandler,Default_Handler
	.weak	CAN2_RX1_IRQHandler
	.thumb_set CAN2_RX1_IRQHandler,Default_Handler
	.weak	CAN2_RX0_IRQHandler
	.thumb_set CAN2_RX0_IRQHandler,Default_Handler
	.weak	CAN2_TX_IRQHandler
	.thumb_set CAN2_TX_IRQHandler,Default_Handler
	.weak	ETH_WKUP_IRQHandler
	.thumb_set ETH_WKUP_IRQHandler,Default_Handler
	.weak	ETH_IRQHandler
	.thumb_set ETH_IRQHandler,Default_Handler
	.weak	DMA2_Stream4_IRQHandler
	.thumb_set DMA2_Stream4_IRQHandler,Default_Handler
	.weak	DMA2_Stream3_IRQHandler
	.thumb_set DMA2_Stream3_IRQHandler,Default_Handler
	.weak	DMA2_Stream2_IRQHandler
	.thumb_set DMA2_Stream2_IRQHandler,Default_Handler
	.weak	DMA2_Stream1_IRQHandler
	.thumb_set DMA2_Stream1_IRQHandler,Default_Handler
	.weak	DMA2_Stream0_IRQHandler
	.thumb_set DMA2_Stream0_IRQHandler,Default_Handler
	.weak	TIM7_IRQHandler
	.thumb_set TIM7_IRQHandler,Default_Handler
	.weak	TIM6_DAC_IRQHandler
	.thumb_set TIM6_DAC_IRQHandler,Default_Handler
	.weak	UART5_IRQHandler
	.thumb_set UART5_IRQHandler,Default_Handler
	.weak	UART4_IRQHandler
	.thumb_set UART4_IRQHandler,Default_Handler
	.weak	SPI3_IRQHandler
	.thumb_set SPI3_IRQHandler,Default_Handler
	.weak	TIM5_IRQHandler
	.thumb_set TIM5_IRQHandler,Default_Handler
	.weak	SDIO_IRQHandler
	.thumb_set SDIO_IRQHandler,Default_Handler
	.weak	FSMC_IRQHandler
	.thumb_set FSMC_IRQHandler,Default_Handler
	.weak	DMA1_Stream7_IRQHandler
	.thumb_set DMA1_Stream7_IRQHandler,Default_Handler
	.weak	TIM8_CC_IRQHandler
	.thumb_set TIM8_CC_IRQHandler,Default_Handler
	.weak	TIM8_TRG_COM_TIM14_IRQHandler
	.thumb_set TIM8_TRG_COM_TIM14_IRQHandler,Default_Handler
	.weak	TIM8_UP_TIM13_IRQHandler
	.thumb_set TIM8_UP_TIM13_IRQHandler,Default_Handler
	.weak	TIM8_BRK_TIM12_IRQHandler
	.thumb_set TIM8_BRK_TIM12_IRQHandler,Default_Handler
	.weak	OTG_FS_WKUP_IRQHandler
	.thumb_set OTG_FS_WKUP_IRQHandler,Default_Handler
	.weak	RTC_Alarm_IRQHandler
	.thumb_set RTC_Alarm_IRQHandler,Default_Handler
	.weak	EXTI15_10_IRQHandler
	.thumb_set EXTI15_10_IRQHandler,Default_Handler
	.weak	USART3_IRQHandler
	.thumb_set USART3_IRQHandler,Default_Handler
	.weak	USART2_IRQHandler
	.thumb_set USART2_IRQHandler,Default_Handler
	.weak	USART1_IRQHandler
	.thumb_set USART1_IRQHandler,Default_Handler
	.weak	SPI2_IRQHandler
	.thumb_set SPI2_IRQHandler,Default_Handler
	.weak	SPI1_IRQHandler
	.thumb_set SPI1_IRQHandler,Default_Handler
	.weak	I2C2_ER_IRQHandler
	.thumb_set I2C2_ER_IRQHandler,Default_Handler
	.weak	I2C2_EV_IRQHandler
	.thumb_set I2C2_EV_IRQHandler,Default_Handler
	.weak	I2C1_ER_IRQHandler
	.thumb_set I2C1_ER_IRQHandler,Default_Handler
	.weak	I2C1_EV_IRQHandler
	.thumb_set I2C1_EV_IRQHandler,Default_Handler
	.weak	TIM4_IRQHandler
	.thumb_set TIM4_IRQHandler,Default_Handler
	.weak	TIM3_IRQHandler
	.thumb_set TIM3_IRQHandler,Default_Handler
	.weak	TIM2_IRQHandler
	.thumb_set TIM2_IRQHandler,Default_Handler
	.weak	TIM1_CC_IRQHandler
	.thumb_set TIM1_CC_IRQHandler,Default_Handler
	.weak	TIM1_TRG_COM_TIM11_IRQHandler
	.thumb_set TIM1_TRG_COM_TIM11_IRQHandler,Default_Handler
	.weak	TIM1_UP_TIM10_IRQHandler
	.thumb_set TIM1_UP_TIM10_IRQHandler,Default_Handler
	.weak	TIM1_BRK_TIM9_IRQHandler
	.thumb_set TIM1_BRK_TIM9_IRQHandler,Default_Handler
	.weak	EXTI9_5_IRQHandler
	.thumb_set EXTI9_5_IRQHandler,Default_Handler
	.weak	CAN1_SCE_IRQHandler
	.thumb_set CAN1_SCE_IRQHandler,Default_Handler
	.weak	CAN1_RX1_IRQHandler
	.thumb_set CAN1_RX1_IRQHandler,Default_Handler
	.weak	CAN1_RX0_IRQHandler
	.thumb_set CAN1_RX0_IRQHandler,Default_Handler
	.weak	CAN1_TX_IRQHandler
	.thumb_set CAN1_TX_IRQHandler,Default_Handler
	.weak	ADC_IRQHandler
	.thumb_set ADC_IRQHandler,Default_Handler
	.weak	DMA1_Stream6_IRQHandler
	.thumb_set DMA1_Stream6_IRQHandler,Default_Handler
	.weak	DMA1_Stream5_IRQHandler
	.thumb_set DMA1_Stream5_IRQHandler,Default_Handler
	.weak	DMA1_Stream4_IRQHandler
	.thumb_set DMA1_Stream4_IRQHandler,Default_Handler
	.weak	DMA1_Stream3_IRQHandler
	.thumb_set DMA1_Stream3_IRQHandler,Default_Handler
	.weak	DMA1_Stream2_IRQHandler
	.thumb_set DMA1_Stream2_IRQHandler,Default_Handler
	.weak	DMA1_Stream1_IRQHandler
	.thumb_set DMA1_Stream1_IRQHandler,Default_Handler
	.weak	DMA1_Stream0_IRQHandler
	.thumb_set DMA1_Stream0_IRQHandler,Default_Handler
	.weak	EXTI4_IRQHandler
	.thumb_set EXTI4_IRQHandler,Default_Handler
	.weak	EXTI3_IRQHandler
	.thumb_set EXTI3_IRQHandler,Default_Handler
	.weak	EXTI2_IRQHandler
	.thumb_set EXTI2_IRQHandler,Default_Handler
	.weak	EXTI1_IRQHandler
	.thumb_set EXTI1_IRQHandler,Default_Handler
	.weak	EXTI0_IRQHandler
	.thumb_set EXTI0_IRQHandler,Default_Handler
	.weak	RCC_IRQHandler
	.thumb_set RCC_IRQHandler,Default_Handler
	.weak	FLASH_IRQHandler
	.thumb_set FLASH_IRQHandler,Default_Handler
	.weak	RTC_WKUP_IRQHandler
	.thumb_set RTC_WKUP_IRQHandler,Default_Handler
	.weak	TAMP_STAMP_IRQHandler
	.thumb_set TAMP_STAMP_IRQHandler,Default_Handler
	.weak	PVD_IRQHandler
	.thumb_set PVD_IRQHandler,Default_Handler
	.weak	WWDG_IRQHandler
	.thumb_set WWDG_IRQHandler,Default_Handler
	.weak	SysTick_Handler
	.thumb_set SysTick_Handler,Default_Handler
	.weak	PendSV_Handler
	.thumb_set PendSV_Handler,Default_Handler
	.weak	DebugMonitor_Handler
	.thumb_set DebugMonitor_Handler,Default_Handler
	.weak	SVCall_Handler
	.thumb_set SVCall_Handler,Default_Handler
	.weak	UsageFault_Handler
	.thumb_set UsageFault_Handler,Default_Handler
	.weak	BusFault_Handler
	.thumb_set BusFault_Handler,Default_Handler
	.weak	MemManage_Handler
	.thumb_set MemManage_Handler,Default_Handler
	.weak	HardFault_Handler
	.thumb_set HardFault_Handler,Default_Handler
	.weak	NMI_Handler
	.thumb_set NMI_Handler,Default_Handler
	.align	1
	.global	Reset_Handler
	.syntax unified
	.thumb
	.thumb_func
	.type	Reset_Handler, %function
Reset_Handler:
.LFB1:
	.loc 1 229 1
	.cfi_startproc
	@ args = 0, pretend = 0, frame = 24
	@ frame_needed = 1, uses_anonymous_args = 0
	push	{r7, lr}
	.cfi_def_cfa_offset 8
	.cfi_offset 7, -8
	.cfi_offset 14, -4
	sub	sp, sp, #24
	.cfi_def_cfa_offset 32
	add	r7, sp, #0
	.cfi_def_cfa_register 7
	.loc 1 232 21
	ldr	r2, .L9
	.loc 1 232 41
	ldr	r3, .L9+4
	.loc 1 232 14
	subs	r3, r2, r3
	str	r3, [r7, #4]
	.loc 1 234 14
	ldr	r3, .L9+8
	str	r3, [r7, #20]
	.loc 1 235 14
	ldr	r3, .L9+4
	str	r3, [r7, #16]
.LBB2:
	.loc 1 237 18
	movs	r3, #0
	str	r3, [r7, #12]
	.loc 1 237 5
	b	.L4
.L5:
	.loc 1 239 24
	ldr	r2, [r7, #20]
	adds	r3, r2, #1
	str	r3, [r7, #20]
	.loc 1 239 14
	ldr	r3, [r7, #16]
	adds	r1, r3, #1
	str	r1, [r7, #16]
	.loc 1 239 19
	ldrb	r2, [r2]	@ zero_extendqisi2
	.loc 1 239 17
	strb	r2, [r3]
	.loc 1 237 36 discriminator 3
	ldr	r3, [r7, #12]
	adds	r3, r3, #1
	str	r3, [r7, #12]
.L4:
	.loc 1 237 27 discriminator 1
	ldr	r2, [r7, #12]
	ldr	r3, [r7, #4]
	cmp	r2, r3
	bcc	.L5
.LBE2:
	.loc 1 244 12
	ldr	r2, .L9+12
	.loc 1 244 31
	ldr	r3, .L9+16
	.loc 1 244 10
	subs	r3, r2, r3
	str	r3, [r7, #4]
	.loc 1 246 10
	ldr	r3, .L9+16
	str	r3, [r7, #16]
.LBB3:
	.loc 1 248 18
	movs	r3, #0
	str	r3, [r7, #8]
	.loc 1 248 5
	b	.L6
.L7:
	.loc 1 250 14
	ldr	r3, [r7, #16]
	adds	r2, r3, #1
	str	r2, [r7, #16]
	.loc 1 250 17
	movs	r2, #0
	strb	r2, [r3]
	.loc 1 248 36 discriminator 3
	ldr	r3, [r7, #8]
	adds	r3, r3, #1
	str	r3, [r7, #8]
.L6:
	.loc 1 248 27 discriminator 1
	ldr	r2, [r7, #8]
	ldr	r3, [r7, #4]
	cmp	r2, r3
	bcc	.L7
.LBE3:
	.loc 1 255 5
	bl	main
.L8:
	.loc 1 257 10
	nop
	b	.L8
.L10:
	.align	2
.L9:
	.word	_edata
	.word	_sdata
	.word	_etext
	.word	_ebss
	.word	_sbss
	.cfi_endproc
.LFE1:
	.size	Reset_Handler, .-Reset_Handler
.Letext0:
	.file 2 "/usr/lib/gcc/arm-none-eabi/13.2.1/include/stdint.h"